target datalayout = "e-m:e-p270:32:32-p271:32:32-p272:64:64-i64:64-i128:128-f80:128-n8:16:32:64-S128"
target triple = "x86_64-pc-linux-gnu"

@id_digest = internal global i64 0, align 8
@rb_eArgError = external global i64, align 8
@.str.31 = private unnamed_addr constant [14 x i8] c"no data given\00", align 1

; Function Attrs: nounwind sspstrong uwtable
define internal i64 @rb_digest_class_s_digest(i32 noundef %0, ptr noundef %1, i64 noundef %2) #0 {
  %4 = alloca i32, align 4
  %5 = alloca ptr, align 8
  %6 = alloca i64, align 8
  %7 = alloca i64, align 8
  %8 = alloca i64, align 8
  store i32 %0, ptr %4, align 4, !tbaa !14
  store ptr %1, ptr %5, align 8, !tbaa !16
  store i64 %2, ptr %6, align 8, !tbaa !10
  call void @llvm.lifetime.start.p0(i64 8, ptr %7) #21
  call void @llvm.lifetime.start.p0(i64 8, ptr %8) #21
  %9 = load i32, ptr %4, align 4, !tbaa !14
  %10 = icmp slt i32 %9, 1
  br i1 %10, label %11, label %13

11:                                               ; preds = %3
  %12 = load i64, ptr @rb_eArgError, align 8, !tbaa !10
  call void (i64, ptr, ...) @rb_raise(i64 noundef %12, ptr noundef @.str.31) #20
  unreachable

13:                                               ; preds = %3
  %14 = load ptr, ptr %5, align 8, !tbaa !16
  %15 = getelementptr inbounds nuw i64, ptr %14, i32 1
  store ptr %15, ptr %5, align 8, !tbaa !16
  %16 = load i64, ptr %14, align 8, !tbaa !10
  store i64 %16, ptr %7, align 8, !tbaa !10
  %17 = load i32, ptr %4, align 4, !tbaa !14
  %18 = add nsw i32 %17, -1
  store i32 %18, ptr %4, align 4, !tbaa !14
  %19 = call i64 @rb_string_value(ptr noundef %7)
  %20 = load i64, ptr %6, align 8, !tbaa !10
  %21 = call i64 @rb_obj_alloc(i64 noundef %20)
  store volatile i64 %21, ptr %8, align 8, !tbaa !10
  %22 = load volatile i64, ptr %8, align 8, !tbaa !10
  %23 = load i32, ptr %4, align 4, !tbaa !14
  %24 = load ptr, ptr %5, align 8, !tbaa !16
  call void @rb_obj_call_init(i64 noundef %22, i32 noundef %23, ptr noundef %24)
  %25 = load volatile i64, ptr %8, align 8, !tbaa !10
  %26 = load i64, ptr @id_digest, align 8, !tbaa !10
  %27 = load i64, ptr %7, align 8, !tbaa !10
  %28 = call i64 (i64, i64, i32, ...) @rb_funcall(i64 noundef %25, i64 noundef %26, i32 noundef 1, i64 noundef %27)
  call void @llvm.lifetime.end.p0(i64 8, ptr %8) #21
  call void @llvm.lifetime.end.p0(i64 8, ptr %7) #21
  ret i64 %28
}