; Function Attrs: nounwind sspstrong uwtable
define internal i64 @rb_digest_class_s_digest(i32 noundef %0, ptr noundef %1, i64 noundef %2) #0 {
  %4 = alloca i64, align 8
  %5 = alloca i64, align 8
  call void @llvm.lifetime.start.p0(i64 8, ptr nonnull %4) #9
  call void @llvm.lifetime.start.p0(i64 8, ptr nonnull %5)
  %6 = icmp slt i32 %0, 1
  br i1 %6, label %7, label %9

7:                                                ; preds = %3
  %8 = load i64, ptr @rb_eArgError, align 8, !tbaa !6
  tail call void (i64, ptr, ...) @rb_raise(i64 noundef %8, ptr noundef nonnull @.str.31) #10
  unreachable

9:                                                ; preds = %3
  %10 = getelementptr inbounds nuw i8, ptr %1, i64 8
  %11 = load i64, ptr %1, align 8, !tbaa !6
  store i64 %11, ptr %4, align 8, !tbaa !6
  %12 = add nsw i32 %0, -1
  %13 = call i64 @rb_string_value(ptr noundef nonnull %4) #9
  %14 = call i64 @rb_obj_alloc(i64 noundef %2) #9
  store volatile i64 %14, ptr %5, align 8, !tbaa !6
  %.0..0..0..0. = load volatile i64, ptr %5, align 8, !tbaa !6
  call void @rb_obj_call_init(i64 noundef %.0..0..0..0., i32 noundef %12, ptr noundef nonnull %10) #9
  %.0..0..0..0.1 = load volatile i64, ptr %5, align 8, !tbaa !6
  %15 = load i64, ptr @id_digest, align 8, !tbaa !6
  %16 = load i64, ptr %4, align 8, !tbaa !6
  %17 = call i64 (i64, i64, i32, ...) @rb_funcall(i64 noundef %.0..0..0..0.1, i64 noundef %15, i32 noundef 1, i64 noundef %16) #9
  call void @llvm.lifetime.end.p0(i64 8, ptr nonnull %5)
  call void @llvm.lifetime.end.p0(i64 8, ptr nonnull %4) #9
  ret i64 %17
}